; Function Attrs: nounwind uwtable
define dso_local i32 @get_opfamily_oid(i32 noundef %0, ptr noundef %1, i1 noundef zeroext %2) local_unnamed_addr #0 {
  %4 = alloca ptr, align 8
  %5 = alloca ptr, align 8
  call void @llvm.lifetime.start.p0(i64 8, ptr nonnull %4) #6
  call void @llvm.lifetime.start.p0(i64 8, ptr nonnull %5) #6
  call void @DeconstructQualifiedName(ptr noundef %1, ptr noundef nonnull %4, ptr noundef nonnull %5) #6
  %6 = load ptr, ptr %4, align 8
  %.not.i = icmp eq ptr %6, null
  br i1 %.not.i, label %15, label %7

7:                                                ; preds = %3
  %8 = call i32 @LookupExplicitNamespace(ptr noundef nonnull %6, i1 noundef zeroext %2) #6
  %.not20.i = icmp eq i32 %8, 0
  br i1 %.not20.i, label %21, label %9

9:                                                ; preds = %7
  %10 = zext i32 %0 to i64
  %11 = load ptr, ptr %5, align 8
  %12 = ptrtoint ptr %11 to i64
  %13 = zext i32 %8 to i64
  %14 = call ptr @SearchSysCache3(i32 noundef 41, i64 noundef %10, i64 noundef %12, i64 noundef %13) #6
  br label %21

15:                                               ; preds = %3
  %16 = load ptr, ptr %5, align 8
  %17 = call i32 @OpfamilynameGetOpfid(i32 noundef %0, ptr noundef %16) #6
  %.not19.i = icmp eq i32 %17, 0
  br i1 %.not19.i, label %21, label %18

18:                                               ; preds = %15
  %19 = zext i32 %17 to i64
  %20 = call ptr @SearchSysCache1(i32 noundef 42, i64 noundef %19) #6
  br label %21

21:                                               ; preds = %18, %15, %9, %7
  %.1.i = phi ptr [ %14, %9 ], [ null, %7 ], [ %20, %18 ], [ null, %15 ]
  %.not21.i = icmp ne ptr %.1.i, null
  %brmerge.i = or i1 %2, %.not21.i
  br i1 %brmerge.i, label %OpFamilyCacheLookup.exit, label %22

22:                                               ; preds = %21
  %23 = zext i32 %0 to i64
  %24 = call ptr @SearchSysCache1(i32 noundef 2, i64 noundef %23) #6
  %.not22.i = icmp eq ptr %24, null
  %25 = call zeroext i1 @errstart_cold(i32 noundef 21, ptr noundef null) #7
  call void @llvm.assume(i1 %25)
  br i1 %.not22.i, label %26, label %28

26:                                               ; preds = %22
  %27 = call i32 (ptr, ...) @errmsg_internal(ptr noundef nonnull @.str.15, i32 noundef %0) #6
  call void @errfinish(ptr noundef nonnull @.str.1, i32 noundef 121, ptr noundef nonnull @__func__.OpFamilyCacheLookup) #6
  unreachable

28:                                               ; preds = %22
  %29 = call i32 @errcode(i32 noundef 67137668) #6
  %30 = call ptr @NameListToString(ptr noundef %1) #6
  %31 = getelementptr i8, ptr %24, i64 16
  %.val.i = load ptr, ptr %31, align 8
  %32 = getelementptr inbounds nuw i8, ptr %.val.i, i64 22
  %33 = load i8, ptr %32, align 2
  %34 = zext i8 %33 to i64
  %35 = getelementptr inbounds nuw i8, ptr %.val.i, i64 %34
  %36 = getelementptr inbounds nuw i8, ptr %35, i64 4
  %37 = call i32 (ptr, ...) @errmsg(ptr noundef nonnull @.str.16, ptr noundef %30, ptr noundef nonnull %36) #6
  call void @errfinish(ptr noundef nonnull @.str.1, i32 noundef 126, ptr noundef nonnull @__func__.OpFamilyCacheLookup) #6
  unreachable

OpFamilyCacheLookup.exit:                         ; preds = %21
  call void @llvm.lifetime.end.p0(i64 8, ptr nonnull %5) #6
  call void @llvm.lifetime.end.p0(i64 8, ptr nonnull %4) #6
  %.not = icmp eq ptr %.1.i, null
  br i1 %.not, label %45, label %38

38:                                               ; preds = %OpFamilyCacheLookup.exit
  %39 = getelementptr i8, ptr %.1.i, i64 16
  %.val = load ptr, ptr %39, align 8
  %40 = getelementptr inbounds nuw i8, ptr %.val, i64 22
  %41 = load i8, ptr %40, align 2
  %42 = zext i8 %41 to i64
  %43 = getelementptr inbounds nuw i8, ptr %.val, i64 %42
  %44 = load i32, ptr %43, align 4
  call void @ReleaseSysCache(ptr noundef nonnull %.1.i) #6
  br label %45

45:                                               ; preds = %OpFamilyCacheLookup.exit, %38
  %.0 = phi i32 [ %44, %38 ], [ 0, %OpFamilyCacheLookup.exit ]
  ret i32 %.0
}